target datalayout = "e-m:e-p270:32:32-p271:32:32-p272:64:64-i64:64-i128:128-f80:128-n8:16:32:64-S128"
target triple = "x86_64-pc-linux-gnu"

@hf_fmp_numBlksReq = internal global i32 0, align 4
@hf_fmp_extent_state = internal global i32 0, align 4
@hf_fmp_volID = internal global i32 0, align 4
@hf_fmp_start_offset64 = internal global i32 0, align 4
@hf_fmp_firstLogBlk64 = internal global i32 0, align 4
@ett_fmp_extList = internal global i32 0, align 4
@.str.283 = private unnamed_addr constant [12 x i8] c"Extent List\00", align 1

; Function Attrs: null_pointer_is_valid sspstrong uwtable
define internal i32 @dissect_fmp_extentState(ptr noundef %0, i32 noundef %1, ptr noundef %2) #0 {
  %4 = alloca ptr, align 8
  %5 = alloca i32, align 4
  %6 = alloca ptr, align 8
  store ptr %0, ptr %4, align 8
  store i32 %1, ptr %5, align 4
  store ptr %2, ptr %6, align 8
  %7 = load ptr, ptr %4, align 8
  %8 = load ptr, ptr %6, align 8
  %9 = load i32, ptr @hf_fmp_extent_state, align 4
  %10 = load i32, ptr %5, align 4
  %11 = call i32 @dissect_rpc_uint32(ptr noundef %7, ptr noundef %8, i32 noundef %9, i32 noundef %10)
  store i32 %11, ptr %5, align 4
  %12 = load i32, ptr %5, align 4
  ret i32 %12
}

; Function Attrs: null_pointer_is_valid sspstrong uwtable
define internal i32 @dissect_fmp_extentListEx(ptr noundef %0, i32 noundef %1, ptr noundef %2, ptr noundef %3) #0 {
  %5 = alloca ptr, align 8
  %6 = alloca i32, align 4
  %7 = alloca ptr, align 8
  %8 = alloca ptr, align 8
  %9 = alloca i32, align 4
  %10 = alloca ptr, align 8
  %11 = alloca i32, align 4
  store ptr %0, ptr %5, align 8
  store i32 %1, ptr %6, align 4
  store ptr %2, ptr %7, align 8
  store ptr %3, ptr %8, align 8
  call void @llvm.lifetime.start.p0(i64 4, ptr %9) #4
  call void @llvm.lifetime.start.p0(i64 8, ptr %10) #4
  call void @llvm.lifetime.start.p0(i64 4, ptr %11) #4
  %12 = load ptr, ptr %5, align 8
  %13 = load i32, ptr %6, align 4
  %14 = call i32 @tvb_get_ntohl(ptr noundef %12, i32 noundef %13)
  store i32 %14, ptr %9, align 4
  %15 = load i32, ptr %6, align 4
  %16 = add i32 %15, 4
  store i32 %16, ptr %6, align 4
  store i32 0, ptr %11, align 4
  br label %17

17:                                               ; preds = %51, %4
  %18 = load i32, ptr %11, align 4
  %19 = load i32, ptr %9, align 4
  %20 = icmp ult i32 %18, %19
  br i1 %20, label %21, label %54

21:                                               ; preds = %17
  %22 = load ptr, ptr %8, align 8
  %23 = load ptr, ptr %5, align 8
  %24 = load i32, ptr %6, align 4
  %25 = load i32, ptr @ett_fmp_extList, align 4
  %26 = call ptr @proto_tree_add_subtree(ptr noundef %22, ptr noundef %23, i32 noundef %24, i32 noundef 28, i32 noundef %25, ptr noundef null, ptr noundef @.str.283)
  store ptr %26, ptr %10, align 8
  %27 = load ptr, ptr %5, align 8
  %28 = load ptr, ptr %10, align 8
  %29 = load i32, ptr @hf_fmp_firstLogBlk64, align 4
  %30 = load i32, ptr %6, align 4
  %31 = call i32 @dissect_rpc_uint64(ptr noundef %27, ptr noundef %28, i32 noundef %29, i32 noundef %30)
  store i32 %31, ptr %6, align 4
  %32 = load ptr, ptr %5, align 8
  %33 = load ptr, ptr %10, align 8
  %34 = load i32, ptr @hf_fmp_numBlksReq, align 4
  %35 = load i32, ptr %6, align 4
  %36 = call i32 @dissect_rpc_uint32(ptr noundef %32, ptr noundef %33, i32 noundef %34, i32 noundef %35)
  store i32 %36, ptr %6, align 4
  %37 = load ptr, ptr %5, align 8
  %38 = load ptr, ptr %10, align 8
  %39 = load i32, ptr @hf_fmp_volID, align 4
  %40 = load i32, ptr %6, align 4
  %41 = call i32 @dissect_rpc_uint32(ptr noundef %37, ptr noundef %38, i32 noundef %39, i32 noundef %40)
  store i32 %41, ptr %6, align 4
  %42 = load ptr, ptr %5, align 8
  %43 = load ptr, ptr %10, align 8
  %44 = load i32, ptr @hf_fmp_start_offset64, align 4
  %45 = load i32, ptr %6, align 4
  %46 = call i32 @dissect_rpc_uint64(ptr noundef %42, ptr noundef %43, i32 noundef %44, i32 noundef %45)
  store i32 %46, ptr %6, align 4
  %47 = load ptr, ptr %5, align 8
  %48 = load i32, ptr %6, align 4
  %49 = load ptr, ptr %10, align 8
  %50 = call i32 @dissect_fmp_extentState(ptr noundef %47, i32 noundef %48, ptr noundef %49)
  store i32 %50, ptr %6, align 4
  br label %51

51:                                               ; preds = %21
  %52 = load i32, ptr %11, align 4
  %53 = add i32 %52, 1
  store i32 %53, ptr %11, align 4
  br label %17, !llvm.loop !16

54:                                               ; preds = %17
  %55 = load i32, ptr %6, align 4
  call void @llvm.lifetime.end.p0(i64 4, ptr %11) #4
  call void @llvm.lifetime.end.p0(i64 8, ptr %10) #4
  call void @llvm.lifetime.end.p0(i64 4, ptr %9) #4
  ret i32 %55
}