; Function Attrs: null_pointer_is_valid sspstrong uwtable
define internal fastcc i32 @dissect_fmp_extentListEx(ptr noundef %0, i32 noundef %1, ptr noundef %2) unnamed_addr #0 {
  %4 = tail call i32 @tvb_get_ntohl(ptr noundef %0, i32 noundef %1)
  %5 = add i32 %1, 4
  %.not = icmp eq i32 %4, 0
  br i1 %.not, label %._crit_edge, label %.lr.ph

.lr.ph:                                           ; preds = %3, %.lr.ph
  %.02 = phi i32 [ %18, %.lr.ph ], [ 0, %3 ]
  %.0241 = phi i32 [ %17, %.lr.ph ], [ %5, %3 ]
  %6 = load i32, ptr @ett_fmp_extList, align 4
  %7 = tail call ptr @proto_tree_add_subtree(ptr noundef %2, ptr noundef %0, i32 noundef %.0241, i32 noundef 28, i32 noundef %6, ptr noundef null, ptr noundef nonnull @.str.283)
  %8 = load i32, ptr @hf_fmp_firstLogBlk64, align 4
  %9 = tail call i32 @dissect_rpc_uint64(ptr noundef %0, ptr noundef %7, i32 noundef %8, i32 noundef %.0241)
  %10 = load i32, ptr @hf_fmp_numBlksReq, align 4
  %11 = tail call i32 @dissect_rpc_uint32(ptr noundef %0, ptr noundef %7, i32 noundef %10, i32 noundef %9)
  %12 = load i32, ptr @hf_fmp_volID, align 4
  %13 = tail call i32 @dissect_rpc_uint32(ptr noundef %0, ptr noundef %7, i32 noundef %12, i32 noundef %11)
  %14 = load i32, ptr @hf_fmp_start_offset64, align 4
  %15 = tail call i32 @dissect_rpc_uint64(ptr noundef %0, ptr noundef %7, i32 noundef %14, i32 noundef %13)
  %16 = load i32, ptr @hf_fmp_extent_state, align 4
  %17 = tail call i32 @dissect_rpc_uint32(ptr noundef %0, ptr noundef %7, i32 noundef %16, i32 noundef %15)
  %18 = add nuw i32 %.02, 1
  %exitcond.not = icmp eq i32 %18, %4
  br i1 %exitcond.not, label %._crit_edge, label %.lr.ph, !llvm.loop !16

._crit_edge:                                      ; preds = %.lr.ph, %3
  %.024.lcssa = phi i32 [ %5, %3 ], [ %17, %.lr.ph ]
  ret i32 %.024.lcssa
}